(lp0
VIII
p1
aVADM
p2
aVAAL
p3
aVANTO
p4
aVAHT
p5
aVABF
p6
aVAZN
p7
aVAV.
p8
aVBA.
p9
aVBARC
p10
aVBDEV
p11
aVBKG
p12
aVBLT
p13
aVBP.
p14
aVBATS
p15
aVBLND
p16
aVBT.A
p17
aVBNZL
p18
aVBRBY
p19
aVCCL
p20
aVCNA
p21
aVCCH
p22
aVCPG
p23
aVCRH
p24
aVCRDA
p25
aVDCC
p26
aVDGE
p27
aVDLG
p28
aVEZJ
p29
aVEVR
p30
aVEXPN
p31
aVFERG
p32
aVFRES
p33
aVGFS
p34
aVGKN
p35
aVGSK
p36
aVGLEN
p37
aVHLMA
p38
aVHMSO
p39
aVHL.
p40
aVHSBA
p41
aVIMB
p42
aVINF
p43
aVIHG
p44
aVIAG
p45
aVITRK
p46
aVITV
p47
aVJMAT
p48
aVKGF
p49
aVLAND
p50
aVLGEN
p51
aVLLOY
p52
aVLSE
p53
aVMKS
p54
aVMDC
p55
aVMCRO
p56
aVMNDI
p57
aVMRW
p58
aVNG.
p59
aVNXT
p60
aVNMC
p61
aVOML
p62
aVPPB
p63
aVPSON
p64
aVPSN
p65
aVPRU
p66
aVRRS
p67
aVRB.
p68
aVREL
p69
aVRTO
p70
aVRIO
p71
aVRR.
p72
aVRBS
p73
aVRDSA
p74
aVRSA
p75
aVSGE
p76
aVSBRY
p77
aVSDR
p78
aVSMT
p79
aVSGRO
p80
aVSVT
p81
aVSHP
p82
aVSKY
p83
aVSN.
p84
aVSMDS
p85
aVSMIN
p86
aVSKG
p87
aVSSE
p88
aVSTAN
p89
aVSLA
p90
aVSTJ
p91
aVTW.
p92
aVTSCO
p93
aVTUI
p94
aVULVR
p95
aVUU.
p96
aVVOD
p97
aVWTB
p98
aVWPP
p99
a.